target datalayout = "e-m:e-p270:32:32-p271:32:32-p272:64:64-i64:64-i128:128-f80:128-n8:16:32:64-S128"
target triple = "x86_64-pc-linux-gnu"

%union.t_iparams = type { %struct.anon.21 }
%struct.anon.21 = type { [3 x float], [3 x float], [3 x float], [3 x float] }
%struct.anon.17 = type { float, float, i32, float, float }

; Function Attrs: mustprogress nounwind uwtable
define linkonce_odr noundef float @_ZSt4sqrtf(float noundef %0) #2 comdat {
  %2 = alloca float, align 4
  store float %0, ptr %2, align 4
  %3 = load float, ptr %2, align 4
  %4 = call float @sqrtf(float noundef %3) #4
  ret float %4
}

; Function Attrs: mustprogress uwtable
define internal noundef float @_ZN3gmxL7invsqrtEf(float noundef %0) #0 {
  %2 = alloca float, align 4
  store float %0, ptr %2, align 4
  %3 = load float, ptr %2, align 4
  %4 = call noundef float @_ZSt4sqrtf(float noundef %3)
  %5 = fdiv float 1.000000e+00, %4
  ret float %5
}

; Function Attrs: mustprogress nounwind uwtable
define internal noundef float @_ZL5iprodPKfS0_(ptr noundef %0, ptr noundef %1) #2 {
  %3 = alloca ptr, align 8
  %4 = alloca ptr, align 8
  store ptr %0, ptr %3, align 8
  store ptr %1, ptr %4, align 8
  %5 = load ptr, ptr %3, align 8
  %6 = getelementptr inbounds float, ptr %5, i64 0
  %7 = load float, ptr %6, align 4
  %8 = load ptr, ptr %4, align 8
  %9 = getelementptr inbounds float, ptr %8, i64 0
  %10 = load float, ptr %9, align 4
  %11 = load ptr, ptr %3, align 8
  %12 = getelementptr inbounds float, ptr %11, i64 1
  %13 = load float, ptr %12, align 4
  %14 = load ptr, ptr %4, align 8
  %15 = getelementptr inbounds float, ptr %14, i64 1
  %16 = load float, ptr %15, align 4
  %17 = fmul float %13, %16
  %18 = call float @llvm.fmuladd.f32(float %7, float %10, float %17)
  %19 = load ptr, ptr %3, align 8
  %20 = getelementptr inbounds float, ptr %19, i64 2
  %21 = load float, ptr %20, align 4
  %22 = load ptr, ptr %4, align 8
  %23 = getelementptr inbounds float, ptr %22, i64 2
  %24 = load float, ptr %23, align 4
  %25 = call float @llvm.fmuladd.f32(float %21, float %24, float %18)
  ret float %25
}

; Function Attrs: mustprogress nounwind uwtable
define linkonce_odr noundef float @_ZSt3cosf(float noundef %0) #2 comdat {
  %2 = alloca float, align 4
  store float %0, ptr %2, align 4
  %3 = load float, ptr %2, align 4
  %4 = call float @cosf(float noundef %3) #4
  ret float %4
}

; Function Attrs: mustprogress uwtable
define void @_Z25compute_factors_restrdihsiPK9t_iparamsPfS2_S2_S2_S2_S2_S2_S2_S2_S2_S2_S2_S2_S2_S2_S2_S2_(i32 noundef %0, ptr noundef %1, ptr noundef %2, ptr noundef %3, ptr noundef %4, ptr noundef %5, ptr noundef %6, ptr noundef %7, ptr noundef %8, ptr noundef %9, ptr noundef %10, ptr noundef %11, ptr noundef %12, ptr noundef %13, ptr noundef %14, ptr noundef %15, ptr noundef %16, ptr noundef %17, ptr noundef %18) #0 {
  %20 = alloca i32, align 4
  %21 = alloca ptr, align 8
  %22 = alloca ptr, align 8
  %23 = alloca ptr, align 8
  %24 = alloca ptr, align 8
  %25 = alloca ptr, align 8
  %26 = alloca ptr, align 8
  %27 = alloca ptr, align 8
  %28 = alloca ptr, align 8
  %29 = alloca ptr, align 8
  %30 = alloca ptr, align 8
  %31 = alloca ptr, align 8
  %32 = alloca ptr, align 8
  %33 = alloca ptr, align 8
  %34 = alloca ptr, align 8
  %35 = alloca ptr, align 8
  %36 = alloca ptr, align 8
  %37 = alloca ptr, align 8
  %38 = alloca ptr, align 8
  %39 = alloca float, align 4
  %40 = alloca float, align 4
  %41 = alloca float, align 4
  %42 = alloca float, align 4
  %43 = alloca float, align 4
  %44 = alloca float, align 4
  %45 = alloca float, align 4
  %46 = alloca float, align 4
  %47 = alloca float, align 4
  %48 = alloca float, align 4
  %49 = alloca float, align 4
  %50 = alloca float, align 4
  %51 = alloca float, align 4
  %52 = alloca float, align 4
  %53 = alloca float, align 4
  %54 = alloca float, align 4
  %55 = alloca float, align 4
  %56 = alloca float, align 4
  %57 = alloca float, align 4
  store i32 %0, ptr %20, align 4
  store ptr %1, ptr %21, align 8
  store ptr %2, ptr %22, align 8
  store ptr %3, ptr %23, align 8
  store ptr %4, ptr %24, align 8
  store ptr %5, ptr %25, align 8
  store ptr %6, ptr %26, align 8
  store ptr %7, ptr %27, align 8
  store ptr %8, ptr %28, align 8
  store ptr %9, ptr %29, align 8
  store ptr %10, ptr %30, align 8
  store ptr %11, ptr %31, align 8
  store ptr %12, ptr %32, align 8
  store ptr %13, ptr %33, align 8
  store ptr %14, ptr %34, align 8
  store ptr %15, ptr %35, align 8
  store ptr %16, ptr %36, align 8
  store ptr %17, ptr %37, align 8
  store ptr %18, ptr %38, align 8
  %58 = load ptr, ptr %21, align 8
  %59 = load i32, ptr %20, align 4
  %60 = sext i32 %59 to i64
  %61 = getelementptr inbounds %union.t_iparams, ptr %58, i64 %60
  %62 = getelementptr inbounds %struct.anon.17, ptr %61, i32 0, i32 0
  %63 = load float, ptr %62, align 4
  %64 = fpext float %63 to double
  %65 = fmul double %64, 0x3F91DF46A2529D39
  %66 = fptrunc double %65 to float
  store float %66, ptr %39, align 4
  %67 = load float, ptr %39, align 4
  %68 = call noundef float @_ZSt3cosf(float noundef %67)
  store float %68, ptr %40, align 4
  %69 = load ptr, ptr %21, align 8
  %70 = load i32, ptr %20, align 4
  %71 = sext i32 %70 to i64
  %72 = getelementptr inbounds %union.t_iparams, ptr %69, i64 %71
  %73 = getelementptr inbounds %struct.anon.17, ptr %72, i32 0, i32 1
  %74 = load float, ptr %73, align 4
  store float %74, ptr %41, align 4
  %75 = load ptr, ptr %22, align 8
  %76 = load ptr, ptr %22, align 8
  %77 = call noundef float @_ZL5iprodPKfS0_(ptr noundef %75, ptr noundef %76)
  store float %77, ptr %42, align 4
  %78 = load ptr, ptr %23, align 8
  %79 = load ptr, ptr %23, align 8
  %80 = call noundef float @_ZL5iprodPKfS0_(ptr noundef %78, ptr noundef %79)
  store float %80, ptr %43, align 4
  %81 = load ptr, ptr %24, align 8
  %82 = load ptr, ptr %24, align 8
  %83 = call noundef float @_ZL5iprodPKfS0_(ptr noundef %81, ptr noundef %82)
  store float %83, ptr %44, align 4
  %84 = load ptr, ptr %22, align 8
  %85 = load ptr, ptr %23, align 8
  %86 = call noundef float @_ZL5iprodPKfS0_(ptr noundef %84, ptr noundef %85)
  store float %86, ptr %45, align 4
  %87 = load ptr, ptr %22, align 8
  %88 = load ptr, ptr %24, align 8
  %89 = call noundef float @_ZL5iprodPKfS0_(ptr noundef %87, ptr noundef %88)
  store float %89, ptr %46, align 4
  %90 = load ptr, ptr %23, align 8
  %91 = load ptr, ptr %24, align 8
  %92 = call noundef float @_ZL5iprodPKfS0_(ptr noundef %90, ptr noundef %91)
  store float %92, ptr %47, align 4
  %93 = load float, ptr %45, align 4
  %94 = load float, ptr %47, align 4
  %95 = load float, ptr %43, align 4
  %96 = load float, ptr %46, align 4
  %97 = fmul float %95, %96
  %98 = fneg float %97
  %99 = call float @llvm.fmuladd.f32(float %93, float %94, float %98)
  store float %99, ptr %48, align 4
  %100 = load float, ptr %42, align 4
  %101 = load float, ptr %43, align 4
  %102 = load float, ptr %45, align 4
  %103 = load float, ptr %45, align 4
  %104 = fmul float %102, %103
  %105 = fneg float %104
  %106 = call float @llvm.fmuladd.f32(float %100, float %101, float %105)
  store float %106, ptr %50, align 4
  %107 = load float, ptr %44, align 4
  %108 = load float, ptr %43, align 4
  %109 = load float, ptr %47, align 4
  %110 = load float, ptr %47, align 4
  %111 = fmul float %109, %110
  %112 = fneg float %111
  %113 = call float @llvm.fmuladd.f32(float %107, float %108, float %112)
  store float %113, ptr %49, align 4
  %114 = load float, ptr %50, align 4
  %115 = fcmp olt float %114, 0x3E80000000000000
  br i1 %115, label %116, label %117

116:                                              ; preds = %19
  store float 0x3E80000000000000, ptr %50, align 4
  br label %117

117:                                              ; preds = %116, %19
  %118 = load float, ptr %49, align 4
  %119 = fcmp olt float %118, 0x3E80000000000000
  br i1 %119, label %120, label %121

120:                                              ; preds = %117
  store float 0x3E80000000000000, ptr %49, align 4
  br label %121

121:                                              ; preds = %120, %117
  %122 = load float, ptr %50, align 4
  %123 = load float, ptr %49, align 4
  %124 = fmul float %122, %123
  %125 = call noundef float @_ZN3gmxL7invsqrtEf(float noundef %124)
  store float %125, ptr %57, align 4
  %126 = load float, ptr %48, align 4
  %127 = load float, ptr %57, align 4
  %128 = fmul float %126, %127
  store float %128, ptr %52, align 4
  %129 = load float, ptr %52, align 4
  %130 = load float, ptr %52, align 4
  %131 = fmul float %129, %130
  %132 = fpext float %131 to double
  %133 = fsub double 1.000000e+00, %132
  %134 = fptrunc double %133 to float
  store float %134, ptr %51, align 4
  %135 = load float, ptr %51, align 4
  %136 = fpext float %135 to double
  %137 = fcmp olt double %136, 0.000000e+00
  br i1 %137, label %138, label %139

138:                                              ; preds = %121
  store float 0.000000e+00, ptr %51, align 4
  br label %139

139:                                              ; preds = %138, %121
  %140 = load float, ptr %52, align 4
  %141 = load float, ptr %40, align 4
  %142 = fsub float %140, %141
  store float %142, ptr %53, align 4
  %143 = load float, ptr %52, align 4
  %144 = load float, ptr %40, align 4
  %145 = fneg float %143
  %146 = call float @llvm.fmuladd.f32(float %145, float %144, float 1.000000e+00)
  store float %146, ptr %54, align 4
  %147 = load float, ptr %48, align 4
  %148 = load float, ptr %50, align 4
  %149 = fdiv float %147, %148
  store float %149, ptr %55, align 4
  %150 = load float, ptr %48, align 4
  %151 = load float, ptr %49, align 4
  %152 = fdiv float %150, %151
  store float %152, ptr %56, align 4
  %153 = load float, ptr %41, align 4
  %154 = fneg float %153
  %155 = load float, ptr %53, align 4
  %156 = fmul float %154, %155
  %157 = load float, ptr %57, align 4
  %158 = fmul float %156, %157
  %159 = load float, ptr %54, align 4
  %160 = fmul float %158, %159
  %161 = load float, ptr %51, align 4
  %162 = load float, ptr %51, align 4
  %163 = fmul float %161, %162
  %164 = fdiv float %160, %163
  %165 = load ptr, ptr %37, align 8
  store float %164, ptr %165, align 4
  %166 = load float, ptr %55, align 4
  %167 = load float, ptr %43, align 4
  %168 = fmul float %166, %167
  %169 = load ptr, ptr %25, align 8
  store float %168, ptr %169, align 4
  %170 = load float, ptr %47, align 4
  %171 = fneg float %170
  %172 = load float, ptr %55, align 4
  %173 = load float, ptr %45, align 4
  %174 = fneg float %172
  %175 = call float @llvm.fmuladd.f32(float %174, float %173, float %171)
  %176 = load ptr, ptr %26, align 8
  store float %175, ptr %176, align 4
  %177 = load float, ptr %43, align 4
  %178 = load ptr, ptr %27, align 8
  store float %177, ptr %178, align 4
  %179 = load float, ptr %47, align 4
  %180 = fneg float %179
  %181 = load float, ptr %55, align 4
  %182 = load float, ptr %43, align 4
  %183 = load float, ptr %45, align 4
  %184 = fadd float %182, %183
  %185 = fneg float %181
  %186 = call float @llvm.fmuladd.f32(float %185, float %184, float %180)
  %187 = load ptr, ptr %28, align 8
  store float %186, ptr %187, align 4
  %188 = load float, ptr %47, align 4
  %189 = fpext float %188 to double
  %190 = load float, ptr %46, align 4
  %191 = fpext float %190 to double
  %192 = call double @llvm.fmuladd.f64(double %191, double 2.000000e+00, double %189)
  %193 = load float, ptr %55, align 4
  %194 = load float, ptr %42, align 4
  %195 = load float, ptr %45, align 4
  %196 = fadd float %194, %195
  %197 = fmul float %193, %196
  %198 = fpext float %197 to double
  %199 = fadd double %192, %198
  %200 = load float, ptr %56, align 4
  %201 = load float, ptr %44, align 4
  %202 = fmul float %200, %201
  %203 = fpext float %202 to double
  %204 = fadd double %199, %203
  %205 = fptrunc double %204 to float
  %206 = load ptr, ptr %29, align 8
  store float %205, ptr %206, align 4
  %207 = load float, ptr %45, align 4
  %208 = load float, ptr %43, align 4
  %209 = fadd float %207, %208
  %210 = fneg float %209
  %211 = load float, ptr %56, align 4
  %212 = load float, ptr %47, align 4
  %213 = fneg float %211
  %214 = call float @llvm.fmuladd.f32(float %213, float %212, float %210)
  %215 = load ptr, ptr %30, align 8
  store float %214, ptr %215, align 4
  %216 = load float, ptr %47, align 4
  %217 = load float, ptr %43, align 4
  %218 = fadd float %216, %217
  %219 = load float, ptr %55, align 4
  %220 = load float, ptr %45, align 4
  %221 = call float @llvm.fmuladd.f32(float %219, float %220, float %218)
  %222 = load ptr, ptr %31, align 8
  store float %221, ptr %222, align 4
  %223 = load float, ptr %45, align 4
  %224 = fpext float %223 to double
  %225 = load float, ptr %46, align 4
  %226 = fpext float %225 to double
  %227 = call double @llvm.fmuladd.f64(double %226, double 2.000000e+00, double %224)
  %228 = fneg double %227
  %229 = load float, ptr %55, align 4
  %230 = load float, ptr %42, align 4
  %231 = fmul float %229, %230
  %232 = fpext float %231 to double
  %233 = fsub double %228, %232
  %234 = load float, ptr %56, align 4
  %235 = load float, ptr %44, align 4
  %236 = load float, ptr %47, align 4
  %237 = fadd float %235, %236
  %238 = fmul float %234, %237
  %239 = fpext float %238 to double
  %240 = fsub double %233, %239
  %241 = fptrunc double %240 to float
  %242 = load ptr, ptr %32, align 8
  store float %241, ptr %242, align 4
  %243 = load float, ptr %45, align 4
  %244 = load float, ptr %56, align 4
  %245 = load float, ptr %43, align 4
  %246 = load float, ptr %47, align 4
  %247 = fadd float %245, %246
  %248 = call float @llvm.fmuladd.f32(float %244, float %247, float %243)
  %249 = load ptr, ptr %33, align 8
  store float %248, ptr %249, align 4
  %250 = load float, ptr %43, align 4
  %251 = fneg float %250
  %252 = load ptr, ptr %34, align 8
  store float %251, ptr %252, align 4
  %253 = load float, ptr %45, align 4
  %254 = load float, ptr %56, align 4
  %255 = load float, ptr %47, align 4
  %256 = call float @llvm.fmuladd.f32(float %254, float %255, float %253)
  %257 = load ptr, ptr %35, align 8
  store float %256, ptr %257, align 4
  %258 = load float, ptr %56, align 4
  %259 = fneg float %258
  %260 = load float, ptr %43, align 4
  %261 = fmul float %259, %260
  %262 = load ptr, ptr %36, align 8
  store float %261, ptr %262, align 4
  %263 = load float, ptr %41, align 4
  %264 = fpext float %263 to double
  %265 = fmul double %264, 5.000000e-01
  %266 = load float, ptr %53, align 4
  %267 = fpext float %266 to double
  %268 = fmul double %265, %267
  %269 = load float, ptr %53, align 4
  %270 = fpext float %269 to double
  %271 = fmul double %268, %270
  %272 = load float, ptr %51, align 4
  %273 = fpext float %272 to double
  %274 = fdiv double %271, %273
  %275 = fptrunc double %274 to float
  %276 = load ptr, ptr %38, align 8
  store float %275, ptr %276, align 4
  ret void
}