; Function Attrs: mustprogress nofree nounwind willreturn memory(write, argmem: readwrite) uwtable
define void @_Z25compute_factors_restrdihsiPK9t_iparamsPfS2_S2_S2_S2_S2_S2_S2_S2_S2_S2_S2_S2_S2_S2_S2_S2_(i32 noundef %0, ptr nocapture noundef readonly %1, ptr nocapture noundef readonly %2, ptr nocapture noundef readonly %3, ptr nocapture noundef readonly %4, ptr nocapture noundef writeonly %5, ptr nocapture noundef writeonly %6, ptr nocapture noundef writeonly %7, ptr nocapture noundef writeonly %8, ptr nocapture noundef writeonly %9, ptr nocapture noundef writeonly %10, ptr nocapture noundef writeonly %11, ptr nocapture noundef writeonly %12, ptr nocapture noundef writeonly %13, ptr nocapture noundef writeonly %14, ptr nocapture noundef writeonly %15, ptr nocapture noundef writeonly %16, ptr nocapture noundef writeonly %17, ptr nocapture noundef writeonly %18) local_unnamed_addr #0 {
  %20 = sext i32 %0 to i64
  %21 = getelementptr inbounds %union.t_iparams, ptr %1, i64 %20
  %22 = load float, ptr %21, align 4
  %23 = fpext float %22 to double
  %24 = fmul double %23, 0x3F91DF46A2529D39
  %25 = fptrunc double %24 to float
  %26 = tail call noundef float @cosf(float noundef %25) #5
  %27 = getelementptr inbounds i8, ptr %21, i64 4
  %28 = load float, ptr %27, align 4
  %29 = load float, ptr %2, align 4
  %30 = getelementptr inbounds i8, ptr %2, i64 4
  %31 = load float, ptr %30, align 4
  %32 = fmul float %31, %31
  %33 = tail call float @llvm.fmuladd.f32(float %29, float %29, float %32)
  %34 = getelementptr inbounds i8, ptr %2, i64 8
  %35 = load float, ptr %34, align 4
  %36 = tail call noundef float @llvm.fmuladd.f32(float %35, float %35, float %33)
  %37 = load float, ptr %3, align 4
  %38 = getelementptr inbounds i8, ptr %3, i64 4
  %39 = load float, ptr %38, align 4
  %40 = fmul float %39, %39
  %41 = tail call float @llvm.fmuladd.f32(float %37, float %37, float %40)
  %42 = getelementptr inbounds i8, ptr %3, i64 8
  %43 = load float, ptr %42, align 4
  %44 = tail call noundef float @llvm.fmuladd.f32(float %43, float %43, float %41)
  %45 = load float, ptr %4, align 4
  %46 = getelementptr inbounds i8, ptr %4, i64 4
  %47 = load float, ptr %46, align 4
  %48 = fmul float %47, %47
  %49 = tail call float @llvm.fmuladd.f32(float %45, float %45, float %48)
  %50 = getelementptr inbounds i8, ptr %4, i64 8
  %51 = load float, ptr %50, align 4
  %52 = tail call noundef float @llvm.fmuladd.f32(float %51, float %51, float %49)
  %53 = fmul float %31, %39
  %54 = tail call float @llvm.fmuladd.f32(float %29, float %37, float %53)
  %55 = tail call noundef float @llvm.fmuladd.f32(float %35, float %43, float %54)
  %56 = fmul float %31, %47
  %57 = tail call float @llvm.fmuladd.f32(float %29, float %45, float %56)
  %58 = tail call noundef float @llvm.fmuladd.f32(float %35, float %51, float %57)
  %59 = fmul float %39, %47
  %60 = tail call float @llvm.fmuladd.f32(float %37, float %45, float %59)
  %61 = tail call noundef float @llvm.fmuladd.f32(float %43, float %51, float %60)
  %62 = fneg float %44
  %63 = fmul float %58, %62
  %64 = tail call float @llvm.fmuladd.f32(float %55, float %61, float %63)
  %65 = fneg float %55
  %66 = fmul float %55, %65
  %67 = tail call float @llvm.fmuladd.f32(float %36, float %44, float %66)
  %68 = fneg float %61
  %69 = fmul float %61, %68
  %70 = tail call float @llvm.fmuladd.f32(float %52, float %44, float %69)
  %71 = fcmp olt float %67, 0x3E80000000000000
  %.0111 = select i1 %71, float 0x3E80000000000000, float %67
  %72 = fcmp olt float %70, 0x3E80000000000000
  %.0 = select i1 %72, float 0x3E80000000000000, float %70
  %73 = fmul float %.0111, %.0
  %74 = tail call noundef float @sqrtf(float noundef %73) #5
  %75 = fdiv float 1.000000e+00, %74
  %76 = fmul float %75, %64
  %77 = fmul float %76, %76
  %78 = fsub float 1.000000e+00, %77
  %79 = fcmp olt float %78, 0.000000e+00
  %.0112 = select i1 %79, float 0.000000e+00, float %78
  %80 = fsub float %76, %26
  %81 = fneg float %76
  %82 = tail call float @llvm.fmuladd.f32(float %81, float %26, float 1.000000e+00)
  %83 = fdiv float %64, %.0111
  %84 = fdiv float %64, %.0
  %85 = fneg float %28
  %86 = fmul float %80, %85
  %87 = fmul float %75, %86
  %88 = fmul float %82, %87
  %89 = fmul float %.0112, %.0112
  %90 = fdiv float %88, %89
  store float %90, ptr %17, align 4
  %91 = fmul float %44, %83
  store float %91, ptr %5, align 4
  %92 = fneg float %83
  %93 = tail call float @llvm.fmuladd.f32(float %92, float %55, float %68)
  store float %93, ptr %6, align 4
  store float %44, ptr %7, align 4
  %94 = fadd float %44, %55
  %95 = tail call float @llvm.fmuladd.f32(float %92, float %94, float %68)
  store float %95, ptr %8, align 4
  %96 = fpext float %61 to double
  %97 = fpext float %58 to double
  %98 = tail call double @llvm.fmuladd.f64(double %97, double 2.000000e+00, double %96)
  %99 = fadd float %36, %55
  %100 = fmul float %99, %83
  %101 = fpext float %100 to double
  %102 = fadd double %98, %101
  %103 = fmul float %52, %84
  %104 = fpext float %103 to double
  %105 = fadd double %102, %104
  %106 = fptrunc double %105 to float
  store float %106, ptr %9, align 4
  %107 = fneg float %94
  %108 = fneg float %84
  %109 = tail call float @llvm.fmuladd.f32(float %108, float %61, float %107)
  store float %109, ptr %10, align 4
  %110 = fadd float %44, %61
  %111 = tail call float @llvm.fmuladd.f32(float %83, float %55, float %110)
  store float %111, ptr %11, align 4
  %112 = fpext float %55 to double
  %113 = tail call double @llvm.fmuladd.f64(double %97, double 2.000000e+00, double %112)
  %114 = fneg double %113
  %115 = fmul float %36, %83
  %116 = fpext float %115 to double
  %117 = fsub double %114, %116
  %118 = fadd float %52, %61
  %119 = fmul float %118, %84
  %120 = fpext float %119 to double
  %121 = fsub double %117, %120
  %122 = fptrunc double %121 to float
  store float %122, ptr %12, align 4
  %123 = tail call float @llvm.fmuladd.f32(float %84, float %110, float %55)
  store float %123, ptr %13, align 4
  store float %62, ptr %14, align 4
  %124 = tail call float @llvm.fmuladd.f32(float %84, float %61, float %55)
  store float %124, ptr %15, align 4
  %125 = fmul float %44, %108
  store float %125, ptr %16, align 4
  %126 = fpext float %28 to double
  %127 = fmul double %126, 5.000000e-01
  %128 = fpext float %80 to double
  %129 = fmul double %127, %128
  %130 = fmul double %129, %128
  %131 = fpext float %.0112 to double
  %132 = fdiv double %130, %131
  %133 = fptrunc double %132 to float
  store float %133, ptr %18, align 4
  ret void
}